; Function Attrs: nounwind uwtable
define ptr @Bmc_CollapseOne(ptr noundef %0, i32 noundef %1, i32 noundef %2, i32 noundef %3, i32 noundef %4, i32 noundef %5) local_unnamed_addr #0 {
  %7 = tail call ptr @Mf_ManGenerateCnf(ptr noundef %0, i32 noundef 8, i32 noundef 0, i32 noundef 0, i32 noundef 0, i32 noundef 0) #16
  %8 = tail call ptr @Cnf_DataWriteIntoSolver(ptr noundef %7, i32 noundef 1, i32 noundef 0) #16
  %9 = getelementptr i8, ptr %0, i64 64
  %.val = load ptr, ptr %9, align 8, !tbaa !3
  %10 = getelementptr i8, ptr %.val, i64 4
  %.val.val = load i32, ptr %10, align 4, !tbaa !28
  %11 = tail call ptr @Bmc_CollapseOne_int(ptr noundef %8, i32 noundef %.val.val, i32 noundef %1, i32 noundef %2, i32 noundef %3, i32 noundef %4, i32 noundef %5)
  tail call void @sat_solver_delete(ptr noundef %8) #16
  tail call void @Cnf_DataFree(ptr noundef %7) #16
  ret ptr %11
}